target datalayout = "e-m:e-p270:32:32-p271:32:32-p272:64:64-i64:64-i128:128-f80:128-n8:16:32:64-S128"
target triple = "x86_64-pc-linux-gnu"

%union.pthread_mutex_t = type { %struct.__pthread_mutex_s }
%struct.__pthread_mutex_s = type { i32, i32, i32, i32, i32, i16, i16, %struct.__pthread_internal_list }
%struct.__pthread_internal_list = type { ptr, ptr }
%struct.repository = type { ptr, ptr, ptr, ptr, ptr, %struct.strmap, %struct.strmap, %struct.repo_path_cache, ptr, ptr, ptr, ptr, %struct.repo_settings, ptr, ptr, ptr, ptr, ptr, ptr, i32, i32, i32, ptr, ptr, i32, i32, i8 }
%struct.strmap = type { %struct.hashmap, ptr, i8 }
%struct.hashmap = type { ptr, ptr, ptr, i32, i32, i32, i32, i8 }
%struct.repo_path_cache = type { ptr, ptr, ptr, ptr, ptr, ptr, ptr }
%struct.repo_settings = type { i32, i32, i32, i32, i32, i32, i32, i32, i32, i32, i32, i32, ptr, i32, i32, i32, i32, i32, i32, i32, i64, i64, i64 }
%struct.raw_object_store = type { ptr, ptr, ptr, i32, ptr, ptr, i8, %union.pthread_mutex_t, ptr, i8, ptr, ptr, %struct.list_head, %struct.anon, %struct.hashmap, i64, i8 }
%struct.list_head = type { ptr, ptr }
%struct.anon = type { ptr, i32 }
%struct.object_directory = type { ptr, [8 x i32], ptr, ptr, i32, i32, ptr }

@the_repository = external global ptr, align 8
@fsync_components = external global i32, align 4
@fsync_method = external global i32, align 4
@fsync_object_files = external global i32, align 4
@.str.97 = private unnamed_addr constant [37 x i8] c"error when closing loose object file\00", align 1

; Function Attrs: inlinehint nounwind uwtable
define internal i32 @batch_fsync_enabled(i32 noundef %0) #7 {
  %2 = alloca i32, align 4
  store i32 %0, ptr %2, align 4, !tbaa !43
  %3 = load i32, ptr @fsync_components, align 4, !tbaa !43
  %4 = load i32, ptr %2, align 4, !tbaa !43
  %5 = and i32 %3, %4
  %6 = icmp ne i32 %5, 0
  br i1 %6, label %7, label %10

7:                                                ; preds = %1
  %8 = load i32, ptr @fsync_method, align 4, !tbaa !43
  %9 = icmp eq i32 %8, 2
  br label %10

10:                                               ; preds = %7, %1
  %11 = phi i1 [ false, %1 ], [ %9, %7 ]
  %12 = zext i1 %11 to i32
  ret i32 %12
}

; Function Attrs: nounwind uwtable
define internal void @close_loose_object(i32 noundef %0, ptr noundef %1) #0 {
  %3 = alloca i32, align 4
  %4 = alloca ptr, align 8
  store i32 %0, ptr %3, align 4, !tbaa !43
  store ptr %1, ptr %4, align 8, !tbaa !12
  %5 = load ptr, ptr @the_repository, align 8, !tbaa !19
  %6 = getelementptr inbounds nuw %struct.repository, ptr %5, i32 0, i32 2
  %7 = load ptr, ptr %6, align 8, !tbaa !64
  %8 = getelementptr inbounds nuw %struct.raw_object_store, ptr %7, i32 0, i32 0
  %9 = load ptr, ptr %8, align 8, !tbaa !65
  %10 = getelementptr inbounds nuw %struct.object_directory, ptr %9, i32 0, i32 5
  %11 = load i32, ptr %10, align 4, !tbaa !96
  %12 = icmp ne i32 %11, 0
  br i1 %12, label %13, label %14

13:                                               ; preds = %2
  br label %31

14:                                               ; preds = %2
  %15 = call i32 @batch_fsync_enabled(i32 noundef 1)
  %16 = icmp ne i32 %15, 0
  br i1 %16, label %17, label %20

17:                                               ; preds = %14
  %18 = load i32, ptr %3, align 4, !tbaa !43
  %19 = load ptr, ptr %4, align 8, !tbaa !12
  call void @fsync_loose_object_bulk_checkin(i32 noundef %18, ptr noundef %19)
  br label %30

20:                                               ; preds = %14
  %21 = load i32, ptr @fsync_object_files, align 4, !tbaa !43
  %22 = icmp sgt i32 %21, 0
  br i1 %22, label %23, label %26

23:                                               ; preds = %20
  %24 = load i32, ptr %3, align 4, !tbaa !43
  %25 = load ptr, ptr %4, align 8, !tbaa !12
  call void @fsync_or_die(i32 noundef %24, ptr noundef %25)
  br label %29

26:                                               ; preds = %20
  %27 = load i32, ptr %3, align 4, !tbaa !43
  %28 = load ptr, ptr %4, align 8, !tbaa !12
  call void @fsync_component_or_die(i32 noundef 1, i32 noundef %27, ptr noundef %28)
  br label %29

29:                                               ; preds = %26, %23
  br label %30

30:                                               ; preds = %29, %17
  br label %31

31:                                               ; preds = %30, %13
  %32 = load i32, ptr %3, align 4, !tbaa !43
  %33 = call i32 @close(i32 noundef %32)
  %34 = icmp ne i32 %33, 0
  br i1 %34, label %35, label %37

35:                                               ; preds = %31
  %36 = call ptr @_(ptr noundef @.str.97)
  call void (ptr, ...) @die_errno(ptr noundef %36) #13
  unreachable

37:                                               ; preds = %31
  ret void
}