; Function Attrs: nounwind uwtable
define internal fastcc void @close_loose_object(i32 noundef range(i32 -1, -2147483648) %0, ptr noundef %1) unnamed_addr #1 {
  %3 = load ptr, ptr @the_repository, align 8, !tbaa !9
  %4 = getelementptr inbounds nuw i8, ptr %3, i64 16
  %5 = load ptr, ptr %4, align 8, !tbaa !54
  %6 = load ptr, ptr %5, align 8, !tbaa !55
  %7 = getelementptr inbounds nuw i8, ptr %6, i64 60
  %8 = load i32, ptr %7, align 4, !tbaa !92
  %.not = icmp eq i32 %8, 0
  br i1 %.not, label %9, label %21

9:                                                ; preds = %2
  %10 = load i32, ptr @fsync_components, align 4, !tbaa !44
  %11 = and i32 %10, 1
  %12 = icmp eq i32 %11, 0
  %13 = load i32, ptr @fsync_method, align 4
  %14 = icmp ne i32 %13, 2
  %.not10 = select i1 %12, i1 true, i1 %14
  br i1 %.not10, label %16, label %15

15:                                               ; preds = %9
  tail call void @fsync_loose_object_bulk_checkin(i32 noundef %0, ptr noundef %1) #27
  br label %21

16:                                               ; preds = %9
  %17 = load i32, ptr @fsync_object_files, align 4, !tbaa !44
  %18 = icmp sgt i32 %17, 0
  br i1 %18, label %19, label %20

19:                                               ; preds = %16
  tail call void @fsync_or_die(i32 noundef %0, ptr noundef %1) #27
  br label %21

20:                                               ; preds = %16
  tail call void @fsync_component_or_die(i32 noundef 1, i32 noundef %0, ptr noundef %1) #27
  br label %21

21:                                               ; preds = %15, %20, %19, %2
  %22 = tail call i32 @close(i32 noundef %0) #27
  %.not7 = icmp eq i32 %22, 0
  br i1 %.not7, label %25, label %23

23:                                               ; preds = %21
  %24 = tail call fastcc ptr @_(ptr noundef nonnull @.str.97)
  tail call void (ptr, ...) @die_errno(ptr noundef %24) #26
  unreachable

25:                                               ; preds = %21
  ret void
}